target datalayout = "e-m:e-p270:32:32-p271:32:32-p272:64:64-i64:64-i128:128-f80:128-n8:16:32:64-S128"
target triple = "x86_64-pc-linux-gnu"

%struct.SDLTest_Md5Context = type { [2 x i32], [4 x i32], [64 x i8], [16 x i8] }

@MD5PADDING = internal global <{ i8, [63 x i8] }> <{ i8 -128, [63 x i8] zeroinitializer }>, align 16

; Function Attrs: nounwind uwtable
define dso_local void @SDLTest_Md5Update(ptr noundef %0, ptr noundef %1, i32 noundef %2) #0 {
  %4 = alloca ptr, align 8
  %5 = alloca ptr, align 8
  %6 = alloca i32, align 4
  %7 = alloca [16 x i32], align 16
  %8 = alloca i32, align 4
  %9 = alloca i32, align 4
  %10 = alloca i32, align 4
  %11 = alloca i32, align 4
  store ptr %0, ptr %4, align 8
  store ptr %1, ptr %5, align 8
  store i32 %2, ptr %6, align 4
  call void @llvm.lifetime.start.p0(i64 64, ptr %7) #2
  call void @llvm.lifetime.start.p0(i64 4, ptr %8) #2
  call void @llvm.lifetime.start.p0(i64 4, ptr %9) #2
  call void @llvm.lifetime.start.p0(i64 4, ptr %10) #2
  %12 = load ptr, ptr %4, align 8
  %13 = icmp ne ptr %12, null
  br i1 %13, label %15, label %14

14:                                               ; preds = %3
  store i32 1, ptr %11, align 4
  br label %135

15:                                               ; preds = %3
  %16 = load ptr, ptr %5, align 8
  %17 = icmp ne ptr %16, null
  br i1 %17, label %18, label %21

18:                                               ; preds = %15
  %19 = load i32, ptr %6, align 4
  %20 = icmp ult i32 %19, 1
  br i1 %20, label %21, label %22

21:                                               ; preds = %18, %15
  store i32 1, ptr %11, align 4
  br label %135

22:                                               ; preds = %18
  %23 = load ptr, ptr %4, align 8
  %24 = getelementptr inbounds nuw %struct.SDLTest_Md5Context, ptr %23, i32 0, i32 0
  %25 = getelementptr inbounds [2 x i32], ptr %24, i64 0, i64 0
  %26 = load i32, ptr %25, align 4
  %27 = lshr i32 %26, 3
  %28 = and i32 %27, 63
  store i32 %28, ptr %8, align 4
  %29 = load ptr, ptr %4, align 8
  %30 = getelementptr inbounds nuw %struct.SDLTest_Md5Context, ptr %29, i32 0, i32 0
  %31 = getelementptr inbounds [2 x i32], ptr %30, i64 0, i64 0
  %32 = load i32, ptr %31, align 4
  %33 = load i32, ptr %6, align 4
  %34 = shl i32 %33, 3
  %35 = add i32 %32, %34
  %36 = load ptr, ptr %4, align 8
  %37 = getelementptr inbounds nuw %struct.SDLTest_Md5Context, ptr %36, i32 0, i32 0
  %38 = getelementptr inbounds [2 x i32], ptr %37, i64 0, i64 0
  %39 = load i32, ptr %38, align 4
  %40 = icmp ult i32 %35, %39
  br i1 %40, label %41, label %47

41:                                               ; preds = %22
  %42 = load ptr, ptr %4, align 8
  %43 = getelementptr inbounds nuw %struct.SDLTest_Md5Context, ptr %42, i32 0, i32 0
  %44 = getelementptr inbounds [2 x i32], ptr %43, i64 0, i64 1
  %45 = load i32, ptr %44, align 4
  %46 = add i32 %45, 1
  store i32 %46, ptr %44, align 4
  br label %47

47:                                               ; preds = %41, %22
  %48 = load i32, ptr %6, align 4
  %49 = shl i32 %48, 3
  %50 = load ptr, ptr %4, align 8
  %51 = getelementptr inbounds nuw %struct.SDLTest_Md5Context, ptr %50, i32 0, i32 0
  %52 = getelementptr inbounds [2 x i32], ptr %51, i64 0, i64 0
  %53 = load i32, ptr %52, align 4
  %54 = add i32 %53, %49
  store i32 %54, ptr %52, align 4
  %55 = load i32, ptr %6, align 4
  %56 = lshr i32 %55, 29
  %57 = load ptr, ptr %4, align 8
  %58 = getelementptr inbounds nuw %struct.SDLTest_Md5Context, ptr %57, i32 0, i32 0
  %59 = getelementptr inbounds [2 x i32], ptr %58, i64 0, i64 1
  %60 = load i32, ptr %59, align 4
  %61 = add i32 %60, %56
  store i32 %61, ptr %59, align 4
  br label %62

62:                                               ; preds = %133, %47
  %63 = load i32, ptr %6, align 4
  %64 = add i32 %63, -1
  store i32 %64, ptr %6, align 4
  %65 = icmp ne i32 %63, 0
  br i1 %65, label %66, label %134

66:                                               ; preds = %62
  %67 = load ptr, ptr %5, align 8
  %68 = getelementptr inbounds nuw i8, ptr %67, i32 1
  store ptr %68, ptr %5, align 8
  %69 = load i8, ptr %67, align 1
  %70 = load ptr, ptr %4, align 8
  %71 = getelementptr inbounds nuw %struct.SDLTest_Md5Context, ptr %70, i32 0, i32 2
  %72 = load i32, ptr %8, align 4
  %73 = add nsw i32 %72, 1
  store i32 %73, ptr %8, align 4
  %74 = sext i32 %72 to i64
  %75 = getelementptr inbounds [64 x i8], ptr %71, i64 0, i64 %74
  store i8 %69, ptr %75, align 1
  %76 = load i32, ptr %8, align 4
  %77 = icmp eq i32 %76, 64
  br i1 %77, label %78, label %133

78:                                               ; preds = %66
  store i32 0, ptr %9, align 4
  store i32 0, ptr %10, align 4
  br label %79

79:                                               ; preds = %123, %78
  %80 = load i32, ptr %9, align 4
  %81 = icmp ult i32 %80, 16
  br i1 %81, label %82, label %128

82:                                               ; preds = %79
  %83 = load ptr, ptr %4, align 8
  %84 = getelementptr inbounds nuw %struct.SDLTest_Md5Context, ptr %83, i32 0, i32 2
  %85 = load i32, ptr %10, align 4
  %86 = add i32 %85, 3
  %87 = zext i32 %86 to i64
  %88 = getelementptr inbounds nuw [64 x i8], ptr %84, i64 0, i64 %87
  %89 = load i8, ptr %88, align 1
  %90 = zext i8 %89 to i32
  %91 = shl i32 %90, 24
  %92 = load ptr, ptr %4, align 8
  %93 = getelementptr inbounds nuw %struct.SDLTest_Md5Context, ptr %92, i32 0, i32 2
  %94 = load i32, ptr %10, align 4
  %95 = add i32 %94, 2
  %96 = zext i32 %95 to i64
  %97 = getelementptr inbounds nuw [64 x i8], ptr %93, i64 0, i64 %96
  %98 = load i8, ptr %97, align 1
  %99 = zext i8 %98 to i32
  %100 = shl i32 %99, 16
  %101 = or i32 %91, %100
  %102 = load ptr, ptr %4, align 8
  %103 = getelementptr inbounds nuw %struct.SDLTest_Md5Context, ptr %102, i32 0, i32 2
  %104 = load i32, ptr %10, align 4
  %105 = add i32 %104, 1
  %106 = zext i32 %105 to i64
  %107 = getelementptr inbounds nuw [64 x i8], ptr %103, i64 0, i64 %106
  %108 = load i8, ptr %107, align 1
  %109 = zext i8 %108 to i32
  %110 = shl i32 %109, 8
  %111 = or i32 %101, %110
  %112 = load ptr, ptr %4, align 8
  %113 = getelementptr inbounds nuw %struct.SDLTest_Md5Context, ptr %112, i32 0, i32 2
  %114 = load i32, ptr %10, align 4
  %115 = zext i32 %114 to i64
  %116 = getelementptr inbounds nuw [64 x i8], ptr %113, i64 0, i64 %115
  %117 = load i8, ptr %116, align 1
  %118 = zext i8 %117 to i32
  %119 = or i32 %111, %118
  %120 = load i32, ptr %9, align 4
  %121 = zext i32 %120 to i64
  %122 = getelementptr inbounds nuw [16 x i32], ptr %7, i64 0, i64 %121
  store i32 %119, ptr %122, align 4
  br label %123

123:                                              ; preds = %82
  %124 = load i32, ptr %9, align 4
  %125 = add i32 %124, 1
  store i32 %125, ptr %9, align 4
  %126 = load i32, ptr %10, align 4
  %127 = add i32 %126, 4
  store i32 %127, ptr %10, align 4
  br label %79, !llvm.loop !4

128:                                              ; preds = %79
  %129 = load ptr, ptr %4, align 8
  %130 = getelementptr inbounds nuw %struct.SDLTest_Md5Context, ptr %129, i32 0, i32 1
  %131 = getelementptr inbounds [4 x i32], ptr %130, i64 0, i64 0
  %132 = getelementptr inbounds [16 x i32], ptr %7, i64 0, i64 0
  call void @SDLTest_Md5Transform(ptr noundef %131, ptr noundef %132)
  store i32 0, ptr %8, align 4
  br label %133

133:                                              ; preds = %128, %66
  br label %62, !llvm.loop !6

134:                                              ; preds = %62
  store i32 0, ptr %11, align 4
  br label %135

135:                                              ; preds = %134, %21, %14
  call void @llvm.lifetime.end.p0(i64 4, ptr %10) #2
  call void @llvm.lifetime.end.p0(i64 4, ptr %9) #2
  call void @llvm.lifetime.end.p0(i64 4, ptr %8) #2
  call void @llvm.lifetime.end.p0(i64 64, ptr %7) #2
  %136 = load i32, ptr %11, align 4
  switch i32 %136, label %138 [
    i32 0, label %137
    i32 1, label %137
  ]

137:                                              ; preds = %135, %135
  ret void

138:                                              ; preds = %135
  unreachable
}

; Function Attrs: nounwind uwtable
define dso_local void @SDLTest_Md5Final(ptr noundef %0) #0 {
  %2 = alloca ptr, align 8
  %3 = alloca [16 x i32], align 16
  %4 = alloca i32, align 4
  %5 = alloca i32, align 4
  %6 = alloca i32, align 4
  %7 = alloca i32, align 4
  %8 = alloca i32, align 4
  store ptr %0, ptr %2, align 8
  call void @llvm.lifetime.start.p0(i64 64, ptr %3) #2
  call void @llvm.lifetime.start.p0(i64 4, ptr %4) #2
  call void @llvm.lifetime.start.p0(i64 4, ptr %5) #2
  call void @llvm.lifetime.start.p0(i64 4, ptr %6) #2
  call void @llvm.lifetime.start.p0(i64 4, ptr %7) #2
  %9 = load ptr, ptr %2, align 8
  %10 = icmp ne ptr %9, null
  br i1 %10, label %12, label %11

11:                                               ; preds = %1
  store i32 1, ptr %8, align 4
  br label %163

12:                                               ; preds = %1
  %13 = load ptr, ptr %2, align 8
  %14 = getelementptr inbounds nuw %struct.SDLTest_Md5Context, ptr %13, i32 0, i32 0
  %15 = getelementptr inbounds [2 x i32], ptr %14, i64 0, i64 0
  %16 = load i32, ptr %15, align 4
  %17 = getelementptr inbounds [16 x i32], ptr %3, i64 0, i64 14
  store i32 %16, ptr %17, align 8
  %18 = load ptr, ptr %2, align 8
  %19 = getelementptr inbounds nuw %struct.SDLTest_Md5Context, ptr %18, i32 0, i32 0
  %20 = getelementptr inbounds [2 x i32], ptr %19, i64 0, i64 1
  %21 = load i32, ptr %20, align 4
  %22 = getelementptr inbounds [16 x i32], ptr %3, i64 0, i64 15
  store i32 %21, ptr %22, align 4
  %23 = load ptr, ptr %2, align 8
  %24 = getelementptr inbounds nuw %struct.SDLTest_Md5Context, ptr %23, i32 0, i32 0
  %25 = getelementptr inbounds [2 x i32], ptr %24, i64 0, i64 0
  %26 = load i32, ptr %25, align 4
  %27 = lshr i32 %26, 3
  %28 = and i32 %27, 63
  store i32 %28, ptr %4, align 4
  %29 = load i32, ptr %4, align 4
  %30 = icmp slt i32 %29, 56
  br i1 %30, label %31, label %34

31:                                               ; preds = %12
  %32 = load i32, ptr %4, align 4
  %33 = sub nsw i32 56, %32
  br label %37

34:                                               ; preds = %12
  %35 = load i32, ptr %4, align 4
  %36 = sub nsw i32 120, %35
  br label %37

37:                                               ; preds = %34, %31
  %38 = phi i32 [ %33, %31 ], [ %36, %34 ]
  store i32 %38, ptr %7, align 4
  %39 = load ptr, ptr %2, align 8
  %40 = load i32, ptr %7, align 4
  call void @SDLTest_Md5Update(ptr noundef %39, ptr noundef @MD5PADDING, i32 noundef %40)
  store i32 0, ptr %5, align 4
  store i32 0, ptr %6, align 4
  br label %41

41:                                               ; preds = %85, %37
  %42 = load i32, ptr %5, align 4
  %43 = icmp ult i32 %42, 14
  br i1 %43, label %44, label %90

44:                                               ; preds = %41
  %45 = load ptr, ptr %2, align 8
  %46 = getelementptr inbounds nuw %struct.SDLTest_Md5Context, ptr %45, i32 0, i32 2
  %47 = load i32, ptr %6, align 4
  %48 = add i32 %47, 3
  %49 = zext i32 %48 to i64
  %50 = getelementptr inbounds nuw [64 x i8], ptr %46, i64 0, i64 %49
  %51 = load i8, ptr %50, align 1
  %52 = zext i8 %51 to i32
  %53 = shl i32 %52, 24
  %54 = load ptr, ptr %2, align 8
  %55 = getelementptr inbounds nuw %struct.SDLTest_Md5Context, ptr %54, i32 0, i32 2
  %56 = load i32, ptr %6, align 4
  %57 = add i32 %56, 2
  %58 = zext i32 %57 to i64
  %59 = getelementptr inbounds nuw [64 x i8], ptr %55, i64 0, i64 %58
  %60 = load i8, ptr %59, align 1
  %61 = zext i8 %60 to i32
  %62 = shl i32 %61, 16
  %63 = or i32 %53, %62
  %64 = load ptr, ptr %2, align 8
  %65 = getelementptr inbounds nuw %struct.SDLTest_Md5Context, ptr %64, i32 0, i32 2
  %66 = load i32, ptr %6, align 4
  %67 = add i32 %66, 1
  %68 = zext i32 %67 to i64
  %69 = getelementptr inbounds nuw [64 x i8], ptr %65, i64 0, i64 %68
  %70 = load i8, ptr %69, align 1
  %71 = zext i8 %70 to i32
  %72 = shl i32 %71, 8
  %73 = or i32 %63, %72
  %74 = load ptr, ptr %2, align 8
  %75 = getelementptr inbounds nuw %struct.SDLTest_Md5Context, ptr %74, i32 0, i32 2
  %76 = load i32, ptr %6, align 4
  %77 = zext i32 %76 to i64
  %78 = getelementptr inbounds nuw [64 x i8], ptr %75, i64 0, i64 %77
  %79 = load i8, ptr %78, align 1
  %80 = zext i8 %79 to i32
  %81 = or i32 %73, %80
  %82 = load i32, ptr %5, align 4
  %83 = zext i32 %82 to i64
  %84 = getelementptr inbounds nuw [16 x i32], ptr %3, i64 0, i64 %83
  store i32 %81, ptr %84, align 4
  br label %85

85:                                               ; preds = %44
  %86 = load i32, ptr %5, align 4
  %87 = add i32 %86, 1
  store i32 %87, ptr %5, align 4
  %88 = load i32, ptr %6, align 4
  %89 = add i32 %88, 4
  store i32 %89, ptr %6, align 4
  br label %41, !llvm.loop !7

90:                                               ; preds = %41
  %91 = load ptr, ptr %2, align 8
  %92 = getelementptr inbounds nuw %struct.SDLTest_Md5Context, ptr %91, i32 0, i32 1
  %93 = getelementptr inbounds [4 x i32], ptr %92, i64 0, i64 0
  %94 = getelementptr inbounds [16 x i32], ptr %3, i64 0, i64 0
  call void @SDLTest_Md5Transform(ptr noundef %93, ptr noundef %94)
  store i32 0, ptr %5, align 4
  store i32 0, ptr %6, align 4
  br label %95

95:                                               ; preds = %157, %90
  %96 = load i32, ptr %5, align 4
  %97 = icmp ult i32 %96, 4
  br i1 %97, label %98, label %162

98:                                               ; preds = %95
  %99 = load ptr, ptr %2, align 8
  %100 = getelementptr inbounds nuw %struct.SDLTest_Md5Context, ptr %99, i32 0, i32 1
  %101 = load i32, ptr %5, align 4
  %102 = zext i32 %101 to i64
  %103 = getelementptr inbounds nuw [4 x i32], ptr %100, i64 0, i64 %102
  %104 = load i32, ptr %103, align 4
  %105 = and i32 %104, 255
  %106 = trunc i32 %105 to i8
  %107 = load ptr, ptr %2, align 8
  %108 = getelementptr inbounds nuw %struct.SDLTest_Md5Context, ptr %107, i32 0, i32 3
  %109 = load i32, ptr %6, align 4
  %110 = zext i32 %109 to i64
  %111 = getelementptr inbounds nuw [16 x i8], ptr %108, i64 0, i64 %110
  store i8 %106, ptr %111, align 1
  %112 = load ptr, ptr %2, align 8
  %113 = getelementptr inbounds nuw %struct.SDLTest_Md5Context, ptr %112, i32 0, i32 1
  %114 = load i32, ptr %5, align 4
  %115 = zext i32 %114 to i64
  %116 = getelementptr inbounds nuw [4 x i32], ptr %113, i64 0, i64 %115
  %117 = load i32, ptr %116, align 4
  %118 = lshr i32 %117, 8
  %119 = and i32 %118, 255
  %120 = trunc i32 %119 to i8
  %121 = load ptr, ptr %2, align 8
  %122 = getelementptr inbounds nuw %struct.SDLTest_Md5Context, ptr %121, i32 0, i32 3
  %123 = load i32, ptr %6, align 4
  %124 = add i32 %123, 1
  %125 = zext i32 %124 to i64
  %126 = getelementptr inbounds nuw [16 x i8], ptr %122, i64 0, i64 %125
  store i8 %120, ptr %126, align 1
  %127 = load ptr, ptr %2, align 8
  %128 = getelementptr inbounds nuw %struct.SDLTest_Md5Context, ptr %127, i32 0, i32 1
  %129 = load i32, ptr %5, align 4
  %130 = zext i32 %129 to i64
  %131 = getelementptr inbounds nuw [4 x i32], ptr %128, i64 0, i64 %130
  %132 = load i32, ptr %131, align 4
  %133 = lshr i32 %132, 16
  %134 = and i32 %133, 255
  %135 = trunc i32 %134 to i8
  %136 = load ptr, ptr %2, align 8
  %137 = getelementptr inbounds nuw %struct.SDLTest_Md5Context, ptr %136, i32 0, i32 3
  %138 = load i32, ptr %6, align 4
  %139 = add i32 %138, 2
  %140 = zext i32 %139 to i64
  %141 = getelementptr inbounds nuw [16 x i8], ptr %137, i64 0, i64 %140
  store i8 %135, ptr %141, align 1
  %142 = load ptr, ptr %2, align 8
  %143 = getelementptr inbounds nuw %struct.SDLTest_Md5Context, ptr %142, i32 0, i32 1
  %144 = load i32, ptr %5, align 4
  %145 = zext i32 %144 to i64
  %146 = getelementptr inbounds nuw [4 x i32], ptr %143, i64 0, i64 %145
  %147 = load i32, ptr %146, align 4
  %148 = lshr i32 %147, 24
  %149 = and i32 %148, 255
  %150 = trunc i32 %149 to i8
  %151 = load ptr, ptr %2, align 8
  %152 = getelementptr inbounds nuw %struct.SDLTest_Md5Context, ptr %151, i32 0, i32 3
  %153 = load i32, ptr %6, align 4
  %154 = add i32 %153, 3
  %155 = zext i32 %154 to i64
  %156 = getelementptr inbounds nuw [16 x i8], ptr %152, i64 0, i64 %155
  store i8 %150, ptr %156, align 1
  br label %157

157:                                              ; preds = %98
  %158 = load i32, ptr %5, align 4
  %159 = add i32 %158, 1
  store i32 %159, ptr %5, align 4
  %160 = load i32, ptr %6, align 4
  %161 = add i32 %160, 4
  store i32 %161, ptr %6, align 4
  br label %95, !llvm.loop !8

162:                                              ; preds = %95
  store i32 0, ptr %8, align 4
  br label %163

163:                                              ; preds = %162, %11
  call void @llvm.lifetime.end.p0(i64 4, ptr %7) #2
  call void @llvm.lifetime.end.p0(i64 4, ptr %6) #2
  call void @llvm.lifetime.end.p0(i64 4, ptr %5) #2
  call void @llvm.lifetime.end.p0(i64 4, ptr %4) #2
  call void @llvm.lifetime.end.p0(i64 64, ptr %3) #2
  %164 = load i32, ptr %8, align 4
  switch i32 %164, label %166 [
    i32 0, label %165
    i32 1, label %165
  ]

165:                                              ; preds = %163, %163
  ret void

166:                                              ; preds = %163
  unreachable
}