; Function Attrs: nofree norecurse nosync nounwind memory(read, argmem: readwrite, inaccessiblemem: none) uwtable
define dso_local void @SDLTest_Md5Final(ptr noundef captures(address_is_null) %0) local_unnamed_addr #4 {
  %2 = alloca [16 x i32], align 16
  %3 = alloca [16 x i32], align 16
  call void @llvm.lifetime.start.p0(i64 64, ptr nonnull %3) #6
  %.not = icmp eq ptr %0, null
  br i1 %.not, label %.loopexit, label %4

4:                                                ; preds = %1
  %5 = load i32, ptr %0, align 4
  %6 = getelementptr inbounds nuw i8, ptr %3, i64 56
  store i32 %5, ptr %6, align 8
  %7 = getelementptr inbounds nuw i8, ptr %0, i64 4
  %8 = load i32, ptr %7, align 4
  %9 = getelementptr inbounds nuw i8, ptr %3, i64 60
  store i32 %8, ptr %9, align 4
  %10 = lshr i32 %5, 3
  %11 = and i32 %10, 63
  %12 = icmp samesign ult i32 %11, 56
  %.v = select i1 %12, i32 56, i32 120
  %13 = sub nsw i32 %.v, %11
  call void @llvm.lifetime.start.p0(i64 64, ptr nonnull %2) #6
  %14 = icmp eq i32 %13, 0
  br i1 %14, label %SDLTest_Md5Update.exit, label %.lr.ph.i

.lr.ph.i:                                         ; preds = %4
  %15 = shl nsw i32 %13, 3
  %16 = xor i32 %5, -1
  %17 = icmp ugt i32 %15, %16
  %18 = zext i1 %17 to i32
  %19 = add i32 %15, %5
  store i32 %19, ptr %0, align 4
  %20 = lshr i32 %13, 29
  %21 = add i32 %20, %8
  %22 = add i32 %21, %18
  store i32 %22, ptr %7, align 4
  %23 = getelementptr inbounds nuw i8, ptr %0, i64 24
  %24 = getelementptr inbounds nuw i8, ptr %0, i64 8
  br label %25

25:                                               ; preds = %56, %.lr.ph.i
  %.in.i = phi i32 [ %13, %.lr.ph.i ], [ %26, %56 ]
  %.03143.i = phi i32 [ %11, %.lr.ph.i ], [ %.1.i, %56 ]
  %.03342.i = phi ptr [ @MD5PADDING, %.lr.ph.i ], [ %27, %56 ]
  %26 = add i32 %.in.i, -1
  %27 = getelementptr inbounds nuw i8, ptr %.03342.i, i64 1
  %28 = load i8, ptr %.03342.i, align 1
  %29 = add nuw nsw i32 %.03143.i, 1
  %30 = zext nneg i32 %.03143.i to i64
  %31 = getelementptr inbounds nuw [64 x i8], ptr %23, i64 0, i64 %30
  store i8 %28, ptr %31, align 1
  %32 = icmp eq i32 %29, 64
  br i1 %32, label %.preheader.i, label %56

.preheader.i:                                     ; preds = %25, %.preheader.i
  %indvars.iv44.i = phi i64 [ %indvars.iv.next45.i, %.preheader.i ], [ 0, %25 ]
  %indvars.iv.i = phi i64 [ %indvars.iv.next.i, %.preheader.i ], [ 0, %25 ]
  %33 = or disjoint i64 %indvars.iv.i, 3
  %34 = getelementptr inbounds nuw [64 x i8], ptr %23, i64 0, i64 %33
  %35 = load i8, ptr %34, align 1
  %36 = zext i8 %35 to i32
  %37 = shl nuw i32 %36, 24
  %38 = or disjoint i64 %indvars.iv.i, 2
  %39 = getelementptr inbounds nuw [64 x i8], ptr %23, i64 0, i64 %38
  %40 = load i8, ptr %39, align 1
  %41 = zext i8 %40 to i32
  %42 = shl nuw nsw i32 %41, 16
  %43 = or disjoint i32 %42, %37
  %44 = or disjoint i64 %indvars.iv.i, 1
  %45 = getelementptr inbounds nuw [64 x i8], ptr %23, i64 0, i64 %44
  %46 = load i8, ptr %45, align 1
  %47 = zext i8 %46 to i32
  %48 = shl nuw nsw i32 %47, 8
  %49 = or disjoint i32 %43, %48
  %50 = getelementptr inbounds nuw [64 x i8], ptr %23, i64 0, i64 %indvars.iv.i
  %51 = load i8, ptr %50, align 1
  %52 = zext i8 %51 to i32
  %53 = or disjoint i32 %49, %52
  %54 = getelementptr inbounds nuw [16 x i32], ptr %2, i64 0, i64 %indvars.iv44.i
  store i32 %53, ptr %54, align 4
  %indvars.iv.next45.i = add nuw nsw i64 %indvars.iv44.i, 1
  %indvars.iv.next.i = add nuw nsw i64 %indvars.iv.i, 4
  %exitcond.not.i = icmp eq i64 %indvars.iv.next45.i, 16
  br i1 %exitcond.not.i, label %55, label %.preheader.i, !llvm.loop !4

55:                                               ; preds = %.preheader.i
  call fastcc void @SDLTest_Md5Transform(ptr noundef %24, ptr noundef %2)
  br label %56

56:                                               ; preds = %55, %25
  %.1.i = phi i32 [ 0, %55 ], [ %29, %25 ]
  %.not38.i = icmp eq i32 %26, 0
  br i1 %.not38.i, label %SDLTest_Md5Update.exit, label %25, !llvm.loop !6

SDLTest_Md5Update.exit:                           ; preds = %56, %4
  call void @llvm.lifetime.end.p0(i64 64, ptr nonnull %2) #6
  %57 = getelementptr inbounds nuw i8, ptr %0, i64 24
  br label %58

58:                                               ; preds = %SDLTest_Md5Update.exit, %58
  %indvars.iv47 = phi i64 [ 0, %SDLTest_Md5Update.exit ], [ %indvars.iv.next48, %58 ]
  %indvars.iv = phi i64 [ 0, %SDLTest_Md5Update.exit ], [ %indvars.iv.next, %58 ]
  %59 = or disjoint i64 %indvars.iv47, 3
  %60 = getelementptr inbounds nuw [64 x i8], ptr %57, i64 0, i64 %59
  %61 = load i8, ptr %60, align 1
  %62 = zext i8 %61 to i32
  %63 = shl nuw i32 %62, 24
  %64 = or disjoint i64 %indvars.iv47, 2
  %65 = getelementptr inbounds nuw [64 x i8], ptr %57, i64 0, i64 %64
  %66 = load i8, ptr %65, align 1
  %67 = zext i8 %66 to i32
  %68 = shl nuw nsw i32 %67, 16
  %69 = or disjoint i32 %68, %63
  %70 = or disjoint i64 %indvars.iv47, 1
  %71 = getelementptr inbounds nuw [64 x i8], ptr %57, i64 0, i64 %70
  %72 = load i8, ptr %71, align 1
  %73 = zext i8 %72 to i32
  %74 = shl nuw nsw i32 %73, 8
  %75 = or disjoint i32 %69, %74
  %76 = getelementptr inbounds nuw [64 x i8], ptr %57, i64 0, i64 %indvars.iv47
  %77 = load i8, ptr %76, align 1
  %78 = zext i8 %77 to i32
  %79 = or disjoint i32 %75, %78
  %80 = getelementptr inbounds nuw [16 x i32], ptr %3, i64 0, i64 %indvars.iv
  store i32 %79, ptr %80, align 4
  %indvars.iv.next = add nuw nsw i64 %indvars.iv, 1
  %indvars.iv.next48 = add nuw nsw i64 %indvars.iv47, 4
  %exitcond.not = icmp eq i64 %indvars.iv.next, 14
  br i1 %exitcond.not, label %81, label %58, !llvm.loop !7

81:                                               ; preds = %58
  %82 = getelementptr inbounds nuw i8, ptr %0, i64 8
  call fastcc void @SDLTest_Md5Transform(ptr noundef %82, ptr noundef %3)
  %83 = getelementptr inbounds nuw i8, ptr %0, i64 88
  br label %84

84:                                               ; preds = %81, %84
  %indvars.iv54 = phi i64 [ 0, %81 ], [ %indvars.iv.next55, %84 ]
  %indvars.iv52 = phi i64 [ 0, %81 ], [ %indvars.iv.next53, %84 ]
  %85 = getelementptr inbounds nuw [4 x i32], ptr %82, i64 0, i64 %indvars.iv52
  %86 = load i32, ptr %85, align 4
  %87 = trunc i32 %86 to i8
  %88 = getelementptr inbounds nuw [16 x i8], ptr %83, i64 0, i64 %indvars.iv54
  store i8 %87, ptr %88, align 1
  %89 = load i32, ptr %85, align 4
  %90 = lshr i32 %89, 8
  %91 = trunc i32 %90 to i8
  %92 = or disjoint i64 %indvars.iv54, 1
  %93 = getelementptr inbounds nuw [16 x i8], ptr %83, i64 0, i64 %92
  store i8 %91, ptr %93, align 1
  %94 = load i32, ptr %85, align 4
  %95 = lshr i32 %94, 16
  %96 = trunc i32 %95 to i8
  %97 = or disjoint i64 %indvars.iv54, 2
  %98 = getelementptr inbounds nuw [16 x i8], ptr %83, i64 0, i64 %97
  store i8 %96, ptr %98, align 1
  %99 = load i32, ptr %85, align 4
  %100 = lshr i32 %99, 24
  %101 = trunc nuw i32 %100 to i8
  %102 = or disjoint i64 %indvars.iv54, 3
  %103 = getelementptr inbounds nuw [16 x i8], ptr %83, i64 0, i64 %102
  store i8 %101, ptr %103, align 1
  %indvars.iv.next53 = add nuw nsw i64 %indvars.iv52, 1
  %indvars.iv.next55 = add nuw nsw i64 %indvars.iv54, 4
  %exitcond59.not = icmp eq i64 %indvars.iv.next53, 4
  br i1 %exitcond59.not, label %.loopexit, label %84, !llvm.loop !8

.loopexit:                                        ; preds = %84, %1
  call void @llvm.lifetime.end.p0(i64 64, ptr nonnull %3) #6
  ret void
}